target datalayout = "e-m:e-p270:32:32-p271:32:32-p272:64:64-i64:64-i128:128-f80:128-n8:16:32:64-S128"
target triple = "x86_64-pc-linux-gnu"

%class.QString = type { %struct.QArrayDataPointer }
%struct.QArrayDataPointer = type { ptr, ptr, i64 }
%class.QObject = type { ptr, %class.QScopedPointer }
%class.QScopedPointer = type { ptr }
%struct.nstime_t = type { i64, i32 }
%class.QBrush = type { %"class.std::unique_ptr" }
%"class.std::unique_ptr" = type { %"struct.std::__uniq_ptr_data" }
%"struct.std::__uniq_ptr_data" = type { %"class.std::__uniq_ptr_impl" }
%"class.std::__uniq_ptr_impl" = type { %"class.std::tuple" }
%"class.std::tuple" = type { %"struct.std::_Tuple_impl" }
%"struct.std::_Tuple_impl" = type { %"struct.std::_Head_base.28" }
%"struct.std::_Head_base.28" = type { ptr }
%class.IOGraph = type <{ %class.QObject, i32, i32, ptr, %class.QString, %class.QString, i8, i8, i8, [5 x i8], ptr, ptr, %class.QString, %class.QString, %class.QBrush, i32, [4 x i8], %class.QString, i32, i32, %struct.nstime_t, i8, [7 x i8], %"class.std::vector", i32, [4 x i8] }>
%"class.std::vector" = type { %"struct.std::_Vector_base" }
%"struct.std::_Vector_base" = type { %"struct.std::_Vector_base<_io_graph_item_t, std::allocator<_io_graph_item_t>>::_Vector_impl" }
%"struct.std::_Vector_base<_io_graph_item_t, std::allocator<_io_graph_item_t>>::_Vector_impl" = type { %"struct.std::_Vector_base<_io_graph_item_t, std::allocator<_io_graph_item_t>>::_Vector_impl_data" }
%"struct.std::_Vector_base<_io_graph_item_t, std::allocator<_io_graph_item_t>>::_Vector_impl_data" = type { ptr, ptr, ptr }

; Function Attrs: mustprogress null_pointer_is_valid sspstrong uwtable
define void @_ZN7IOGraph7tapDrawEPv(ptr noundef %0) #3 align 2 {
  %2 = alloca ptr, align 8
  %3 = alloca ptr, align 8
  %4 = alloca i32, align 4
  store ptr %0, ptr %2, align 8
  call void @llvm.lifetime.start.p0(i64 8, ptr %3) #2
  %5 = load ptr, ptr %2, align 8
  store ptr %5, ptr %3, align 8
  %6 = load ptr, ptr %3, align 8
  %7 = icmp ne ptr %6, null
  br i1 %7, label %9, label %8

8:                                                ; preds = %1
  store i32 1, ptr %4, align 4
  br label %23

9:                                                ; preds = %1
  %10 = load ptr, ptr %3, align 8
  call void @_ZN7IOGraph13requestRecalcEv(ptr noundef align 8 dereferenceable_or_null(252) %10)
  %11 = load ptr, ptr %3, align 8
  %12 = getelementptr inbounds nuw %class.IOGraph, ptr %11, i32 0, i32 10
  %13 = load ptr, ptr %12, align 8
  %14 = icmp ne ptr %13, null
  br i1 %14, label %15, label %16

15:                                               ; preds = %9
  br label %16

16:                                               ; preds = %15, %9
  %17 = load ptr, ptr %3, align 8
  %18 = getelementptr inbounds nuw %class.IOGraph, ptr %17, i32 0, i32 11
  %19 = load ptr, ptr %18, align 8
  %20 = icmp ne ptr %19, null
  br i1 %20, label %21, label %22

21:                                               ; preds = %16
  br label %22

22:                                               ; preds = %21, %16
  store i32 0, ptr %4, align 4
  br label %23

23:                                               ; preds = %22, %8
  call void @llvm.lifetime.end.p0(i64 8, ptr %3) #2
  %24 = load i32, ptr %4, align 4
  switch i32 %24, label %26 [
    i32 0, label %25
    i32 1, label %25
  ]

25:                                               ; preds = %23, %23
  ret void

26:                                               ; preds = %23
  unreachable
}