; Function Attrs: mustprogress null_pointer_is_valid sspstrong uwtable
define void @_ZN7IOGraph7tapDrawEPv(ptr noundef %0) #2 align 2 {
  %.not = icmp eq ptr %0, null
  br i1 %.not, label %3, label %2

2:                                                ; preds = %1
  tail call void @_ZN7IOGraph13requestRecalcEv(ptr noundef nonnull align 8 dereferenceable_or_null(252) %0)
  br label %3

3:                                                ; preds = %1, %2
  ret void
}